; Function Attrs: mustprogress uwtable
define void @_ZN6casadi6Linsol6createEPNS_14LinsolInternalE(ptr dead_on_unwind noalias writable sret(%"class.casadi::Linsol") align 8 %0, ptr noundef %1) local_unnamed_addr #3 align 2 personality ptr @__gxx_personality_v0 {
  tail call void @_ZN6casadi6LinsolC1Ev(ptr noundef nonnull align 8 dereferenceable(8) %0)
  invoke void @_ZN6casadi12SharedObject3ownEPNS_20SharedObjectInternalE(ptr noundef nonnull align 8 dereferenceable(8) %0, ptr noundef %1)
          to label %5 unwind label %3

3:                                                ; preds = %2
  %4 = landingpad { ptr, i32 }
          cleanup
  tail call void @_ZN6casadi12SharedObjectD2Ev(ptr noundef nonnull align 8 dereferenceable(8) %0) #20
  resume { ptr, i32 } %4

5:                                                ; preds = %2
  ret void
}